; ModuleID = '11/273.c'
source_filename = "11/273.c"
target datalayout = "e-m:e-p270:32:32-p271:32:32-p272:64:64-i64:64-f80:128-n8:16:32:64-S128"
target triple = "x86_64-pc-linux-gnu"

@.str = private unnamed_addr constant [9 x i8] c"%d %d %d\00", align 1
@.str.1 = private unnamed_addr constant [4 x i8] c"%d\0A\00", align 1

; Function Attrs: noinline nounwind uwtable
define dso_local i32 @main() #0 {
  %1 = alloca i32, align 4
  %2 = alloca [5 x i32], align 16
  %3 = alloca [5 x i32], align 16
  %4 = alloca [5 x i32], align 16
  %5 = alloca [5 x i32], align 16
  %6 = alloca i32, align 4
  store i32 0, i32* %1, align 4
  store i32 0, i32* %6, align 4
  br label %7

7:                                                ; preds = %21, %0
  %8 = load i32, i32* %6, align 4
  %9 = icmp sle i32 %8, 4
  br i1 %9, label %10, label %24

10:                                               ; preds = %7
  %11 = load i32, i32* %6, align 4
  %12 = sext i32 %11 to i64
  %13 = getelementptr inbounds [5 x i32], [5 x i32]* %2, i64 0, i64 %12
  %14 = load i32, i32* %6, align 4
  %15 = sext i32 %14 to i64
  %16 = getelementptr inbounds [5 x i32], [5 x i32]* %3, i64 0, i64 %15
  %17 = load i32, i32* %6, align 4
  %18 = sext i32 %17 to i64
  %19 = getelementptr inbounds [5 x i32], [5 x i32]* %4, i64 0, i64 %18
  %20 = call i32 (i8*, ...) @__isoc99_scanf(i8* getelementptr inbounds ([9 x i8], [9 x i8]* @.str, i64 0, i64 0), i32* %13, i32* %16, i32* %19)
  br label %21

21:                                               ; preds = %10
  %22 = load i32, i32* %6, align 4
  %23 = add nsw i32 %22, 1
  store i32 %23, i32* %6, align 4
  br label %7

24:                                               ; preds = %7
  store i32 0, i32* %6, align 4
  br label %25

25:                                               ; preds = %179, %24
  %26 = load i32, i32* %6, align 4
  %27 = icmp sle i32 %26, 4
  br i1 %27, label %28, label %182

28:                                               ; preds = %25
  %29 = load i32, i32* %6, align 4
  %30 = sext i32 %29 to i64
  %31 = getelementptr inbounds [5 x i32], [5 x i32]* %3, i64 0, i64 %30
  %32 = load i32, i32* %31, align 4
  switch i32 %32, label %140 [
    i32 1, label %33
    i32 2, label %41
    i32 3, label %50
    i32 4, label %59
    i32 5, label %68
    i32 6, label %77
    i32 7, label %86
    i32 8, label %95
    i32 9, label %104
    i32 10, label %113
    i32 11, label %122
    i32 12, label %131
  ]

33:                                               ; preds = %28
  %34 = load i32, i32* %6, align 4
  %35 = sext i32 %34 to i64
  %36 = getelementptr inbounds [5 x i32], [5 x i32]* %4, i64 0, i64 %35
  %37 = load i32, i32* %36, align 4
  %38 = load i32, i32* %6, align 4
  %39 = sext i32 %38 to i64
  %40 = getelementptr inbounds [5 x i32], [5 x i32]* %5, i64 0, i64 %39
  store i32 %37, i32* %40, align 4
  br label %140

41:                                               ; preds = %28
  %42 = load i32, i32* %6, align 4
  %43 = sext i32 %42 to i64
  %44 = getelementptr inbounds [5 x i32], [5 x i32]* %4, i64 0, i64 %43
  %45 = load i32, i32* %44, align 4
  %46 = add nsw i32 31, %45
  %47 = load i32, i32* %6, align 4
  %48 = sext i32 %47 to i64
  %49 = getelementptr inbounds [5 x i32], [5 x i32]* %5, i64 0, i64 %48
  store i32 %46, i32* %49, align 4
  br label %140

50:                                               ; preds = %28
  %51 = load i32, i32* %6, align 4
  %52 = sext i32 %51 to i64
  %53 = getelementptr inbounds [5 x i32], [5 x i32]* %4, i64 0, i64 %52
  %54 = load i32, i32* %53, align 4
  %55 = add nsw i32 59, %54
  %56 = load i32, i32* %6, align 4
  %57 = sext i32 %56 to i64
  %58 = getelementptr inbounds [5 x i32], [5 x i32]* %5, i64 0, i64 %57
  store i32 %55, i32* %58, align 4
  br label %140

59:                                               ; preds = %28
  %60 = load i32, i32* %6, align 4
  %61 = sext i32 %60 to i64
  %62 = getelementptr inbounds [5 x i32], [5 x i32]* %4, i64 0, i64 %61
  %63 = load i32, i32* %62, align 4
  %64 = add nsw i32 90, %63
  %65 = load i32, i32* %6, align 4
  %66 = sext i32 %65 to i64
  %67 = getelementptr inbounds [5 x i32], [5 x i32]* %5, i64 0, i64 %66
  store i32 %64, i32* %67, align 4
  br label %140

68:                                               ; preds = %28
  %69 = load i32, i32* %6, align 4
  %70 = sext i32 %69 to i64
  %71 = getelementptr inbounds [5 x i32], [5 x i32]* %4, i64 0, i64 %70
  %72 = load i32, i32* %71, align 4
  %73 = add nsw i32 120, %72
  %74 = load i32, i32* %6, align 4
  %75 = sext i32 %74 to i64
  %76 = getelementptr inbounds [5 x i32], [5 x i32]* %5, i64 0, i64 %75
  store i32 %73, i32* %76, align 4
  br label %140

77:                                               ; preds = %28
  %78 = load i32, i32* %6, align 4
  %79 = sext i32 %78 to i64
  %80 = getelementptr inbounds [5 x i32], [5 x i32]* %4, i64 0, i64 %79
  %81 = load i32, i32* %80, align 4
  %82 = add nsw i32 151, %81
  %83 = load i32, i32* %6, align 4
  %84 = sext i32 %83 to i64
  %85 = getelementptr inbounds [5 x i32], [5 x i32]* %5, i64 0, i64 %84
  store i32 %82, i32* %85, align 4
  br label %140

86:                                               ; preds = %28
  %87 = load i32, i32* %6, align 4
  %88 = sext i32 %87 to i64
  %89 = getelementptr inbounds [5 x i32], [5 x i32]* %4, i64 0, i64 %88
  %90 = load i32, i32* %89, align 4
  %91 = add nsw i32 181, %90
  %92 = load i32, i32* %6, align 4
  %93 = sext i32 %92 to i64
  %94 = getelementptr inbounds [5 x i32], [5 x i32]* %5, i64 0, i64 %93
  store i32 %91, i32* %94, align 4
  br label %140

95:                                               ; preds = %28
  %96 = load i32, i32* %6, align 4
  %97 = sext i32 %96 to i64
  %98 = getelementptr inbounds [5 x i32], [5 x i32]* %4, i64 0, i64 %97
  %99 = load i32, i32* %98, align 4
  %100 = add nsw i32 212, %99
  %101 = load i32, i32* %6, align 4
  %102 = sext i32 %101 to i64
  %103 = getelementptr inbounds [5 x i32], [5 x i32]* %5, i64 0, i64 %102
  store i32 %100, i32* %103, align 4
  br label %140

104:                                              ; preds = %28
  %105 = load i32, i32* %6, align 4
  %106 = sext i32 %105 to i64
  %107 = getelementptr inbounds [5 x i32], [5 x i32]* %4, i64 0, i64 %106
  %108 = load i32, i32* %107, align 4
  %109 = add nsw i32 243, %108
  %110 = load i32, i32* %6, align 4
  %111 = sext i32 %110 to i64
  %112 = getelementptr inbounds [5 x i32], [5 x i32]* %5, i64 0, i64 %111
  store i32 %109, i32* %112, align 4
  br label %140

113:                                              ; preds = %28
  %114 = load i32, i32* %6, align 4
  %115 = sext i32 %114 to i64
  %116 = getelementptr inbounds [5 x i32], [5 x i32]* %4, i64 0, i64 %115
  %117 = load i32, i32* %116, align 4
  %118 = add nsw i32 273, %117
  %119 = load i32, i32* %6, align 4
  %120 = sext i32 %119 to i64
  %121 = getelementptr inbounds [5 x i32], [5 x i32]* %5, i64 0, i64 %120
  store i32 %118, i32* %121, align 4
  br label %140

122:                                              ; preds = %28
  %123 = load i32, i32* %6, align 4
  %124 = sext i32 %123 to i64
  %125 = getelementptr inbounds [5 x i32], [5 x i32]* %4, i64 0, i64 %124
  %126 = load i32, i32* %125, align 4
  %127 = add nsw i32 304, %126
  %128 = load i32, i32* %6, align 4
  %129 = sext i32 %128 to i64
  %130 = getelementptr inbounds [5 x i32], [5 x i32]* %5, i64 0, i64 %129
  store i32 %127, i32* %130, align 4
  br label %140

131:                                              ; preds = %28
  %132 = load i32, i32* %6, align 4
  %133 = sext i32 %132 to i64
  %134 = getelementptr inbounds [5 x i32], [5 x i32]* %4, i64 0, i64 %133
  %135 = load i32, i32* %134, align 4
  %136 = add nsw i32 334, %135
  %137 = load i32, i32* %6, align 4
  %138 = sext i32 %137 to i64
  %139 = getelementptr inbounds [5 x i32], [5 x i32]* %5, i64 0, i64 %138
  store i32 %136, i32* %139, align 4
  br label %140

140:                                              ; preds = %28, %131, %122, %113, %104, %95, %86, %77, %68, %59, %50, %41, %33
  %141 = load i32, i32* %6, align 4
  %142 = sext i32 %141 to i64
  %143 = getelementptr inbounds [5 x i32], [5 x i32]* %2, i64 0, i64 %142
  %144 = load i32, i32* %143, align 4
  %145 = srem i32 %144, 400
  %146 = icmp eq i32 %145, 0
  br i1 %146, label %161, label %147

147:                                              ; preds = %140
  %148 = load i32, i32* %6, align 4
  %149 = sext i32 %148 to i64
  %150 = getelementptr inbounds [5 x i32], [5 x i32]* %2, i64 0, i64 %149
  %151 = load i32, i32* %150, align 4
  %152 = srem i32 %151, 4
  %153 = icmp eq i32 %152, 0
  br i1 %153, label %154, label %173

154:                                              ; preds = %147
  %155 = load i32, i32* %6, align 4
  %156 = sext i32 %155 to i64
  %157 = getelementptr inbounds [5 x i32], [5 x i32]* %2, i64 0, i64 %156
  %158 = load i32, i32* %157, align 4
  %159 = srem i32 %158, 100
  %160 = icmp ne i32 %159, 0
  br i1 %160, label %161, label %173

161:                                              ; preds = %154, %140
  %162 = load i32, i32* %6, align 4
  %163 = sext i32 %162 to i64
  %164 = getelementptr inbounds [5 x i32], [5 x i32]* %3, i64 0, i64 %163
  %165 = load i32, i32* %164, align 4
  %166 = icmp sgt i32 %165, 2
  br i1 %166, label %167, label %173

167:                                              ; preds = %161
  %168 = load i32, i32* %6, align 4
  %169 = sext i32 %168 to i64
  %170 = getelementptr inbounds [5 x i32], [5 x i32]* %5, i64 0, i64 %169
  %171 = load i32, i32* %170, align 4
  %172 = add nsw i32 %171, 1
  store i32 %172, i32* %170, align 4
  br label %173

173:                                              ; preds = %167, %161, %154, %147
  %174 = load i32, i32* %6, align 4
  %175 = sext i32 %174 to i64
  %176 = getelementptr inbounds [5 x i32], [5 x i32]* %5, i64 0, i64 %175
  %177 = load i32, i32* %176, align 4
  %178 = call i32 (i8*, ...) @printf(i8* getelementptr inbounds ([4 x i8], [4 x i8]* @.str.1, i64 0, i64 0), i32 %177)
  br label %179

179:                                              ; preds = %173
  %180 = load i32, i32* %6, align 4
  %181 = add nsw i32 %180, 1
  store i32 %181, i32* %6, align 4
  br label %25

182:                                              ; preds = %25
  ret i32 0
}

declare dso_local i32 @__isoc99_scanf(i8*, ...) #1

declare dso_local i32 @printf(i8*, ...) #1


!llvm.module.flags = !{!0}
!llvm.ident = !{!1}

!0 = !{i32 1, !"wchar_size", i32 4}
!1 = !{!"clang version 10.0.0-4ubuntu1 "}
